target datalayout = "e-m:e-p270:32:32-p271:32:32-p272:64:64-i64:64-i128:128-f80:128-n8:16:32:64-S128"
target triple = "x86_64-pc-linux-gnu"

%class.XMMRegister = type { i32 }
%class.StubCodeGenerator = type { ptr, i8, ptr }

; Function Attrs: mustprogress nounwind uwtable
define hidden void @_ZN13StubGenerator19cc20_shift_lane_orgE11XMMRegisterS0_S0_ib(ptr noundef nonnull align 8 dereferenceable(24) %0, i32 %1, i32 %2, i32 %3, i32 noundef %4, i1 noundef zeroext %5) #1 align 2 {
  %7 = alloca %class.XMMRegister, align 4
  %8 = alloca %class.XMMRegister, align 4
  %9 = alloca %class.XMMRegister, align 4
  %10 = alloca ptr, align 8
  %11 = alloca i32, align 4
  %12 = alloca i8, align 1
  %13 = alloca i32, align 4
  %14 = alloca i32, align 4
  %15 = alloca i32, align 4
  %16 = alloca %class.XMMRegister, align 4
  %17 = alloca %class.XMMRegister, align 4
  %18 = alloca %class.XMMRegister, align 4
  %19 = alloca %class.XMMRegister, align 4
  %20 = alloca %class.XMMRegister, align 4
  %21 = alloca %class.XMMRegister, align 4
  %22 = getelementptr inbounds %class.XMMRegister, ptr %7, i32 0, i32 0
  store i32 %1, ptr %22, align 4
  %23 = getelementptr inbounds %class.XMMRegister, ptr %8, i32 0, i32 0
  store i32 %2, ptr %23, align 4
  %24 = getelementptr inbounds %class.XMMRegister, ptr %9, i32 0, i32 0
  store i32 %3, ptr %24, align 4
  store ptr %0, ptr %10, align 8
  store i32 %4, ptr %11, align 4
  %25 = zext i1 %5 to i8
  store i8 %25, ptr %12, align 1
  %26 = load ptr, ptr %10, align 8
  %27 = load i8, ptr %12, align 1
  %28 = trunc i8 %27 to i1
  %29 = select i1 %28, i32 57, i32 147
  store i32 %29, ptr %13, align 4
  store i32 78, ptr %14, align 4
  %30 = load i8, ptr %12, align 1
  %31 = trunc i8 %30 to i1
  %32 = select i1 %31, i32 147, i32 57
  store i32 %32, ptr %15, align 4
  %33 = getelementptr inbounds %class.StubCodeGenerator, ptr %26, i32 0, i32 2
  %34 = load ptr, ptr %33, align 8
  call void @llvm.memcpy.p0.p0.i64(ptr align 4 %16, ptr align 4 %7, i64 4, i1 false)
  call void @llvm.memcpy.p0.p0.i64(ptr align 4 %17, ptr align 4 %7, i64 4, i1 false)
  %35 = load i32, ptr %13, align 4
  %36 = load i32, ptr %11, align 4
  %37 = getelementptr inbounds %class.XMMRegister, ptr %16, i32 0, i32 0
  %38 = load i32, ptr %37, align 4
  %39 = getelementptr inbounds %class.XMMRegister, ptr %17, i32 0, i32 0
  %40 = load i32, ptr %39, align 4
  call void @_ZN9Assembler7vpshufdE11XMMRegisterS0_ii(ptr noundef nonnull align 8 dereferenceable(40) %34, i32 %38, i32 %40, i32 noundef %35, i32 noundef %36)
  %41 = getelementptr inbounds %class.StubCodeGenerator, ptr %26, i32 0, i32 2
  %42 = load ptr, ptr %41, align 8
  call void @llvm.memcpy.p0.p0.i64(ptr align 4 %18, ptr align 4 %8, i64 4, i1 false)
  call void @llvm.memcpy.p0.p0.i64(ptr align 4 %19, ptr align 4 %8, i64 4, i1 false)
  %43 = load i32, ptr %14, align 4
  %44 = load i32, ptr %11, align 4
  %45 = getelementptr inbounds %class.XMMRegister, ptr %18, i32 0, i32 0
  %46 = load i32, ptr %45, align 4
  %47 = getelementptr inbounds %class.XMMRegister, ptr %19, i32 0, i32 0
  %48 = load i32, ptr %47, align 4
  call void @_ZN9Assembler7vpshufdE11XMMRegisterS0_ii(ptr noundef nonnull align 8 dereferenceable(40) %42, i32 %46, i32 %48, i32 noundef %43, i32 noundef %44)
  %49 = getelementptr inbounds %class.StubCodeGenerator, ptr %26, i32 0, i32 2
  %50 = load ptr, ptr %49, align 8
  call void @llvm.memcpy.p0.p0.i64(ptr align 4 %20, ptr align 4 %9, i64 4, i1 false)
  call void @llvm.memcpy.p0.p0.i64(ptr align 4 %21, ptr align 4 %9, i64 4, i1 false)
  %51 = load i32, ptr %15, align 4
  %52 = load i32, ptr %11, align 4
  %53 = getelementptr inbounds %class.XMMRegister, ptr %20, i32 0, i32 0
  %54 = load i32, ptr %53, align 4
  %55 = getelementptr inbounds %class.XMMRegister, ptr %21, i32 0, i32 0
  %56 = load i32, ptr %55, align 4
  call void @_ZN9Assembler7vpshufdE11XMMRegisterS0_ii(ptr noundef nonnull align 8 dereferenceable(40) %50, i32 %54, i32 %56, i32 noundef %51, i32 noundef %52)
  ret void
}