; Function Attrs: mustprogress nounwind uwtable
define hidden void @_ZN13StubGenerator19cc20_shift_lane_orgE11XMMRegisterS0_S0_ib(ptr nocapture noundef nonnull readonly align 8 dereferenceable(24) %0, i32 %1, i32 %2, i32 %3, i32 noundef %4, i1 noundef zeroext %5) local_unnamed_addr #0 align 2 {
  %7 = select i1 %5, i32 57, i32 147
  %8 = select i1 %5, i32 147, i32 57
  %9 = getelementptr inbounds i8, ptr %0, i64 16
  %10 = load ptr, ptr %9, align 8
  tail call void @_ZN9Assembler7vpshufdE11XMMRegisterS0_ii(ptr noundef nonnull align 8 dereferenceable(40) %10, i32 %1, i32 %1, i32 noundef %7, i32 noundef %4) #5
  %11 = load ptr, ptr %9, align 8
  tail call void @_ZN9Assembler7vpshufdE11XMMRegisterS0_ii(ptr noundef nonnull align 8 dereferenceable(40) %11, i32 %2, i32 %2, i32 noundef 78, i32 noundef %4) #5
  %12 = load ptr, ptr %9, align 8
  tail call void @_ZN9Assembler7vpshufdE11XMMRegisterS0_ii(ptr noundef nonnull align 8 dereferenceable(40) %12, i32 %3, i32 %3, i32 noundef %8, i32 noundef %4) #5
  ret void
}